; Function Attrs: mustprogress uwtable
define dso_local void @_ZN24btMultiBodyDynamicsWorld17forwardKinematicsEv(ptr noundef nonnull align 8 dereferenceable(848) %0) local_unnamed_addr #0 align 2 {
  %2 = getelementptr inbounds nuw i8, ptr %0, i64 516
  %3 = load i32, ptr %2, align 4, !tbaa !4
  %4 = icmp sgt i32 %3, 0
  br i1 %4, label %.lr.ph, label %._crit_edge

.lr.ph:                                           ; preds = %1
  %5 = getelementptr inbounds nuw i8, ptr %0, i64 528
  %6 = getelementptr inbounds nuw i8, ptr %0, i64 624
  %7 = getelementptr inbounds nuw i8, ptr %0, i64 656
  br label %8

._crit_edge:                                      ; preds = %8, %1
  ret void

8:                                                ; preds = %.lr.ph, %8
  %indvars.iv = phi i64 [ 0, %.lr.ph ], [ %indvars.iv.next, %8 ]
  %9 = load ptr, ptr %5, align 8, !tbaa !14
  %10 = getelementptr inbounds nuw ptr, ptr %9, i64 %indvars.iv
  %11 = load ptr, ptr %10, align 8, !tbaa !15
  tail call void @_ZN11btMultiBody17forwardKinematicsER20btAlignedObjectArrayI12btQuaternionERS0_I9btVector3E(ptr noundef nonnull align 8 dereferenceable(640) %11, ptr noundef nonnull align 8 dereferenceable(25) %6, ptr noundef nonnull align 8 dereferenceable(25) %7)
  %indvars.iv.next = add nuw nsw i64 %indvars.iv, 1
  %12 = load i32, ptr %2, align 4, !tbaa !4
  %13 = sext i32 %12 to i64
  %14 = icmp slt i64 %indvars.iv.next, %13
  br i1 %14, label %8, label %._crit_edge, !llvm.loop !193
}